target datalayout = "e-m:e-p270:32:32-p271:32:32-p272:64:64-i64:64-i128:128-f80:128-n8:16:32:64-S128"
target triple = "x86_64-pc-linux-gnu"

@.str.99 = private unnamed_addr constant [3 x i8] c"\\#\00", align 1
@.str.100 = private unnamed_addr constant [3 x i8] c"\\$\00", align 1
@.str.101 = private unnamed_addr constant [3 x i8] c"\\%\00", align 1
@.str.102 = private unnamed_addr constant [3 x i8] c"\\&\00", align 1
@.str.103 = private unnamed_addr constant [12 x i8] c"\\textless{}\00", align 1
@.str.104 = private unnamed_addr constant [15 x i8] c"\\textgreater{}\00", align 1
@.str.105 = private unnamed_addr constant [17 x i8] c"\\textbackslash{}\00", align 1
@.str.106 = private unnamed_addr constant [5 x i8] c"\\^{}\00", align 1
@.str.107 = private unnamed_addr constant [3 x i8] c"\\_\00", align 1
@.str.108 = private unnamed_addr constant [3 x i8] c"\\{\00", align 1
@.str.109 = private unnamed_addr constant [11 x i8] c"\\textbar{}\00", align 1
@.str.110 = private unnamed_addr constant [3 x i8] c"\\}\00", align 1
@.str.111 = private unnamed_addr constant [5 x i8] c"\\~{}\00", align 1
@.str.112 = private unnamed_addr constant [3 x i8] c"\\\\\00", align 1

; Function Attrs: nounwind uwtable
define internal void @latex_escaped_print(ptr noundef %0, ptr noundef %1) #0 {
  %3 = alloca ptr, align 8
  %4 = alloca ptr, align 8
  %5 = alloca ptr, align 8
  store ptr %0, ptr %3, align 8
  store ptr %1, ptr %4, align 8
  call void @llvm.lifetime.start.p0(i64 8, ptr %5) #8
  %6 = load ptr, ptr %3, align 8
  store ptr %6, ptr %5, align 8
  br label %7

7:                                                ; preds = %64, %2
  %8 = load ptr, ptr %5, align 8
  %9 = load i8, ptr %8, align 1
  %10 = icmp ne i8 %9, 0
  br i1 %10, label %11, label %67

11:                                               ; preds = %7
  %12 = load ptr, ptr %5, align 8
  %13 = load i8, ptr %12, align 1
  %14 = sext i8 %13 to i32
  switch i32 %14, label %57 [
    i32 35, label %15
    i32 36, label %18
    i32 37, label %21
    i32 38, label %24
    i32 60, label %27
    i32 62, label %30
    i32 92, label %33
    i32 94, label %36
    i32 95, label %39
    i32 123, label %42
    i32 124, label %45
    i32 125, label %48
    i32 126, label %51
    i32 10, label %54
  ]

15:                                               ; preds = %11
  %16 = load ptr, ptr %4, align 8
  %17 = call i32 @fputs(ptr noundef @.str.99, ptr noundef %16)
  br label %63

18:                                               ; preds = %11
  %19 = load ptr, ptr %4, align 8
  %20 = call i32 @fputs(ptr noundef @.str.100, ptr noundef %19)
  br label %63

21:                                               ; preds = %11
  %22 = load ptr, ptr %4, align 8
  %23 = call i32 @fputs(ptr noundef @.str.101, ptr noundef %22)
  br label %63

24:                                               ; preds = %11
  %25 = load ptr, ptr %4, align 8
  %26 = call i32 @fputs(ptr noundef @.str.102, ptr noundef %25)
  br label %63

27:                                               ; preds = %11
  %28 = load ptr, ptr %4, align 8
  %29 = call i32 @fputs(ptr noundef @.str.103, ptr noundef %28)
  br label %63

30:                                               ; preds = %11
  %31 = load ptr, ptr %4, align 8
  %32 = call i32 @fputs(ptr noundef @.str.104, ptr noundef %31)
  br label %63

33:                                               ; preds = %11
  %34 = load ptr, ptr %4, align 8
  %35 = call i32 @fputs(ptr noundef @.str.105, ptr noundef %34)
  br label %63

36:                                               ; preds = %11
  %37 = load ptr, ptr %4, align 8
  %38 = call i32 @fputs(ptr noundef @.str.106, ptr noundef %37)
  br label %63

39:                                               ; preds = %11
  %40 = load ptr, ptr %4, align 8
  %41 = call i32 @fputs(ptr noundef @.str.107, ptr noundef %40)
  br label %63

42:                                               ; preds = %11
  %43 = load ptr, ptr %4, align 8
  %44 = call i32 @fputs(ptr noundef @.str.108, ptr noundef %43)
  br label %63

45:                                               ; preds = %11
  %46 = load ptr, ptr %4, align 8
  %47 = call i32 @fputs(ptr noundef @.str.109, ptr noundef %46)
  br label %63

48:                                               ; preds = %11
  %49 = load ptr, ptr %4, align 8
  %50 = call i32 @fputs(ptr noundef @.str.110, ptr noundef %49)
  br label %63

51:                                               ; preds = %11
  %52 = load ptr, ptr %4, align 8
  %53 = call i32 @fputs(ptr noundef @.str.111, ptr noundef %52)
  br label %63

54:                                               ; preds = %11
  %55 = load ptr, ptr %4, align 8
  %56 = call i32 @fputs(ptr noundef @.str.112, ptr noundef %55)
  br label %63

57:                                               ; preds = %11
  %58 = load ptr, ptr %5, align 8
  %59 = load i8, ptr %58, align 1
  %60 = sext i8 %59 to i32
  %61 = load ptr, ptr %4, align 8
  %62 = call i32 @fputc(i32 noundef %60, ptr noundef %61)
  br label %63

63:                                               ; preds = %57, %54, %51, %48, %45, %42, %39, %36, %33, %30, %27, %24, %21, %18, %15
  br label %64

64:                                               ; preds = %63
  %65 = load ptr, ptr %5, align 8
  %66 = getelementptr inbounds nuw i8, ptr %65, i32 1
  store ptr %66, ptr %5, align 8
  br label %7, !llvm.loop !82

67:                                               ; preds = %7
  call void @llvm.lifetime.end.p0(i64 8, ptr %5) #8
  ret void
}