; Function Attrs: nofree nounwind uwtable
define internal fastcc void @latex_escaped_print(ptr noundef readonly captures(none) %0, ptr noundef captures(none) %1) unnamed_addr #0 {
  br label %3

3:                                                ; preds = %36, %2
  %.0 = phi ptr [ %0, %2 ], [ %37, %36 ]
  %4 = load i8, ptr %.0, align 1
  switch i8 %4, label %33 [
    i8 0, label %38
    i8 35, label %5
    i8 36, label %7
    i8 37, label %9
    i8 38, label %11
    i8 60, label %13
    i8 62, label %15
    i8 92, label %17
    i8 94, label %19
    i8 95, label %21
    i8 123, label %23
    i8 124, label %25
    i8 125, label %27
    i8 126, label %29
    i8 10, label %31
  ]

5:                                                ; preds = %3
  %6 = tail call i64 @fwrite(ptr nonnull @.str.99, i64 2, i64 1, ptr %1)
  br label %36

7:                                                ; preds = %3
  %8 = tail call i64 @fwrite(ptr nonnull @.str.100, i64 2, i64 1, ptr %1)
  br label %36

9:                                                ; preds = %3
  %10 = tail call i64 @fwrite(ptr nonnull @.str.101, i64 2, i64 1, ptr %1)
  br label %36

11:                                               ; preds = %3
  %12 = tail call i64 @fwrite(ptr nonnull @.str.102, i64 2, i64 1, ptr %1)
  br label %36

13:                                               ; preds = %3
  %14 = tail call i64 @fwrite(ptr nonnull @.str.103, i64 11, i64 1, ptr %1)
  br label %36

15:                                               ; preds = %3
  %16 = tail call i64 @fwrite(ptr nonnull @.str.104, i64 14, i64 1, ptr %1)
  br label %36

17:                                               ; preds = %3
  %18 = tail call i64 @fwrite(ptr nonnull @.str.105, i64 16, i64 1, ptr %1)
  br label %36

19:                                               ; preds = %3
  %20 = tail call i64 @fwrite(ptr nonnull @.str.106, i64 4, i64 1, ptr %1)
  br label %36

21:                                               ; preds = %3
  %22 = tail call i64 @fwrite(ptr nonnull @.str.107, i64 2, i64 1, ptr %1)
  br label %36

23:                                               ; preds = %3
  %24 = tail call i64 @fwrite(ptr nonnull @.str.108, i64 2, i64 1, ptr %1)
  br label %36

25:                                               ; preds = %3
  %26 = tail call i64 @fwrite(ptr nonnull @.str.109, i64 10, i64 1, ptr %1)
  br label %36

27:                                               ; preds = %3
  %28 = tail call i64 @fwrite(ptr nonnull @.str.110, i64 2, i64 1, ptr %1)
  br label %36

29:                                               ; preds = %3
  %30 = tail call i64 @fwrite(ptr nonnull @.str.111, i64 4, i64 1, ptr %1)
  br label %36

31:                                               ; preds = %3
  %32 = tail call i64 @fwrite(ptr nonnull @.str.112, i64 2, i64 1, ptr %1)
  br label %36

33:                                               ; preds = %3
  %34 = sext i8 %4 to i32
  %35 = tail call i32 @fputc(i32 noundef %34, ptr noundef %1)
  br label %36

36:                                               ; preds = %5, %7, %9, %11, %13, %15, %17, %19, %21, %23, %25, %27, %29, %31, %33
  %37 = getelementptr inbounds nuw i8, ptr %.0, i64 1
  br label %3, !llvm.loop !82

38:                                               ; preds = %3
  ret void
}